; ModuleID = 'source-C-CXX/12/304.cpp'
source_filename = "source-C-CXX/12/304.cpp"
target datalayout = "e-m:e-p270:32:32-p271:32:32-p272:64:64-i64:64-f80:128-n8:16:32:64-S128"
target triple = "x86_64-pc-linux-gnu"

%"class.std::ios_base::Init" = type { i8 }
%"class.std::basic_istream" = type { i32 (...)**, i64, %"class.std::basic_ios" }
%"class.std::basic_ios" = type { %"class.std::ios_base", %"class.std::basic_ostream"*, i8, i8, %"class.std::basic_streambuf"*, %"class.std::ctype"*, %"class.std::num_put"*, %"class.std::num_get"* }
%"class.std::ios_base" = type { i32 (...)**, i64, i64, i32, i32, i32, %"struct.std::ios_base::_Callback_list"*, %"struct.std::ios_base::_Words", [8 x %"struct.std::ios_base::_Words"], i32, %"struct.std::ios_base::_Words"*, %"class.std::locale" }
%"struct.std::ios_base::_Callback_list" = type { %"struct.std::ios_base::_Callback_list"*, void (i32, %"class.std::ios_base"*, i32)*, i32, i32 }
%"struct.std::ios_base::_Words" = type { i8*, i64 }
%"class.std::locale" = type { %"class.std::locale::_Impl"* }
%"class.std::locale::_Impl" = type { i32, %"class.std::locale::facet"**, i64, %"class.std::locale::facet"**, i8** }
%"class.std::locale::facet" = type <{ i32 (...)**, i32, [4 x i8] }>
%"class.std::basic_ostream" = type { i32 (...)**, %"class.std::basic_ios" }
%"class.std::basic_streambuf" = type { i32 (...)**, i8*, i8*, i8*, i8*, i8*, i8*, %"class.std::locale" }
%"class.std::ctype" = type <{ %"class.std::locale::facet.base", [4 x i8], %struct.__locale_struct*, i8, [7 x i8], i32*, i32*, i16*, i8, [256 x i8], [256 x i8], i8, [6 x i8] }>
%"class.std::locale::facet.base" = type <{ i32 (...)**, i32 }>
%struct.__locale_struct = type { [13 x %struct.__locale_data*], i16*, i32*, i32*, [13 x i8*] }
%struct.__locale_data = type opaque
%"class.std::num_put" = type { %"class.std::locale::facet.base", [4 x i8] }
%"class.std::num_get" = type { %"class.std::locale::facet.base", [4 x i8] }

@_ZStL8__ioinit = internal global %"class.std::ios_base::Init" zeroinitializer, align 1
@__dso_handle = external hidden global i8
@_ZSt3cin = external global %"class.std::basic_istream", align 8
@_ZSt4cout = external global %"class.std::basic_ostream", align 8
@llvm.global_ctors = appending global [1 x { i32, void ()*, i8* }] [{ i32, void ()*, i8* } { i32 65535, void ()* @_GLOBAL__sub_I_304.cpp, i8* null }]

declare void @_ZNSt8ios_base4InitC1Ev(%"class.std::ios_base::Init"* nonnull align 1 dereferenceable(1)) unnamed_addr #0

; Function Attrs: nounwind
declare void @_ZNSt8ios_base4InitD1Ev(%"class.std::ios_base::Init"* nonnull align 1 dereferenceable(1)) unnamed_addr #1

; Function Attrs: nofree nounwind
declare i32 @__cxa_atexit(void (i8*)*, i8*, i8*) local_unnamed_addr #2

; Function Attrs: mustprogress norecurse sspstrong uwtable
define dso_local i32 @main() local_unnamed_addr #3 {
  %1 = alloca i8, align 1
  %2 = alloca i32, align 4
  %3 = alloca [20000 x i32], align 16
  %4 = bitcast i32* %2 to i8*
  call void @llvm.lifetime.start.p0i8(i64 4, i8* nonnull %4) #6
  %5 = call nonnull align 8 dereferenceable(16) %"class.std::basic_istream"* @_ZNSirsERi(%"class.std::basic_istream"* nonnull align 8 dereferenceable(16) @_ZSt3cin, i32* nonnull align 4 dereferenceable(4) %2)
  %6 = bitcast [20000 x i32]* %3 to i8*
  call void @llvm.lifetime.start.p0i8(i64 80000, i8* nonnull %6) #6
  %7 = load i32, i32* %2, align 4, !tbaa !5
  %8 = icmp sgt i32 %7, 0
  br i1 %8, label %13, label %24

9:                                                ; preds = %13
  %10 = icmp sgt i32 %18, 0
  br i1 %10, label %11, label %24

11:                                               ; preds = %9
  %12 = zext i32 %18 to i64
  br label %32

13:                                               ; preds = %0, %13
  %14 = phi i64 [ %17, %13 ], [ 0, %0 ]
  %15 = getelementptr inbounds [20000 x i32], [20000 x i32]* %3, i64 0, i64 %14
  %16 = call nonnull align 8 dereferenceable(16) %"class.std::basic_istream"* @_ZNSirsERi(%"class.std::basic_istream"* nonnull align 8 dereferenceable(16) @_ZSt3cin, i32* nonnull align 4 dereferenceable(4) %15)
  %17 = add nuw nsw i64 %14, 1
  %18 = load i32, i32* %2, align 4, !tbaa !5
  %19 = sext i32 %18 to i64
  %20 = icmp slt i64 %17, %19
  br i1 %20, label %13, label %9, !llvm.loop !9

21:                                               ; preds = %130, %32
  %22 = phi i32 [ %34, %32 ], [ %132, %130 ]
  %23 = icmp eq i64 %35, %12
  br i1 %23, label %24, label %32, !llvm.loop !11

24:                                               ; preds = %21, %0, %9
  %25 = phi i32 [ %18, %9 ], [ %7, %0 ], [ %18, %21 ]
  %26 = phi i32 [ 0, %9 ], [ 0, %0 ], [ %22, %21 ]
  %27 = xor i32 %26, -1
  %28 = add i32 %25, %27
  %29 = icmp sgt i32 %28, 0
  br i1 %29, label %136, label %30

30:                                               ; preds = %24
  %31 = sext i32 %28 to i64
  br label %147

32:                                               ; preds = %11, %21
  %33 = phi i64 [ 0, %11 ], [ %35, %21 ]
  %34 = phi i32 [ 0, %11 ], [ %22, %21 ]
  %35 = add nuw nsw i64 %33, 1
  %36 = getelementptr inbounds [20000 x i32], [20000 x i32]* %3, i64 0, i64 %33
  %37 = sub nsw i32 %18, %34
  %38 = sext i32 %37 to i64
  %39 = icmp slt i64 %35, %38
  br i1 %39, label %40, label %21

40:                                               ; preds = %32
  %41 = trunc i64 %35 to i32
  br label %42

42:                                               ; preds = %40, %130
  %43 = phi i32 [ %132, %130 ], [ %34, %40 ]
  %44 = phi i32 [ %133, %130 ], [ %41, %40 ]
  %45 = load i32, i32* %36, align 4, !tbaa !5
  %46 = sext i32 %44 to i64
  %47 = getelementptr inbounds [20000 x i32], [20000 x i32]* %3, i64 0, i64 %46
  %48 = load i32, i32* %47, align 4, !tbaa !5
  %49 = icmp eq i32 %45, %48
  br i1 %49, label %50, label %130

50:                                               ; preds = %42
  %51 = xor i32 %43, -1
  %52 = add i32 %18, %51
  %53 = icmp slt i32 %44, %52
  br i1 %53, label %54, label %127

54:                                               ; preds = %50
  %55 = sext i32 %52 to i64
  %56 = sext i32 %52 to i64
  %57 = sub nsw i64 %56, %46
  %58 = icmp ult i64 %57, 8
  br i1 %58, label %118, label %59

59:                                               ; preds = %54
  %60 = and i64 %57, -8
  %61 = add nsw i64 %60, %46
  %62 = add nsw i64 %60, -8
  %63 = lshr exact i64 %62, 3
  %64 = add nuw nsw i64 %63, 1
  %65 = and i64 %64, 1
  %66 = icmp eq i64 %62, 0
  br i1 %66, label %100, label %67

67:                                               ; preds = %59
  %68 = and i64 %64, 4611686018427387902
  br label %69

69:                                               ; preds = %69, %67
  %70 = phi i64 [ 0, %67 ], [ %97, %69 ]
  %71 = phi i64 [ %68, %67 ], [ %98, %69 ]
  %72 = add i64 %70, %46
  %73 = add nsw i64 %72, 1
  %74 = getelementptr inbounds [20000 x i32], [20000 x i32]* %3, i64 0, i64 %73
  %75 = bitcast i32* %74 to <4 x i32>*
  %76 = load <4 x i32>, <4 x i32>* %75, align 4, !tbaa !5
  %77 = getelementptr inbounds i32, i32* %74, i64 4
  %78 = bitcast i32* %77 to <4 x i32>*
  %79 = load <4 x i32>, <4 x i32>* %78, align 4, !tbaa !5
  %80 = getelementptr inbounds [20000 x i32], [20000 x i32]* %3, i64 0, i64 %72
  %81 = bitcast i32* %80 to <4 x i32>*
  store <4 x i32> %76, <4 x i32>* %81, align 4, !tbaa !5
  %82 = getelementptr inbounds i32, i32* %80, i64 4
  %83 = bitcast i32* %82 to <4 x i32>*
  store <4 x i32> %79, <4 x i32>* %83, align 4, !tbaa !5
  %84 = or i64 %70, 8
  %85 = add i64 %84, %46
  %86 = add nsw i64 %85, 1
  %87 = getelementptr inbounds [20000 x i32], [20000 x i32]* %3, i64 0, i64 %86
  %88 = bitcast i32* %87 to <4 x i32>*
  %89 = load <4 x i32>, <4 x i32>* %88, align 4, !tbaa !5
  %90 = getelementptr inbounds i32, i32* %87, i64 4
  %91 = bitcast i32* %90 to <4 x i32>*
  %92 = load <4 x i32>, <4 x i32>* %91, align 4, !tbaa !5
  %93 = getelementptr inbounds [20000 x i32], [20000 x i32]* %3, i64 0, i64 %85
  %94 = bitcast i32* %93 to <4 x i32>*
  store <4 x i32> %89, <4 x i32>* %94, align 4, !tbaa !5
  %95 = getelementptr inbounds i32, i32* %93, i64 4
  %96 = bitcast i32* %95 to <4 x i32>*
  store <4 x i32> %92, <4 x i32>* %96, align 4, !tbaa !5
  %97 = add nuw i64 %70, 16
  %98 = add i64 %71, -2
  %99 = icmp eq i64 %98, 0
  br i1 %99, label %100, label %69, !llvm.loop !12

100:                                              ; preds = %69, %59
  %101 = phi i64 [ 0, %59 ], [ %97, %69 ]
  %102 = icmp eq i64 %65, 0
  br i1 %102, label %116, label %103

103:                                              ; preds = %100
  %104 = add i64 %101, %46
  %105 = add nsw i64 %104, 1
  %106 = getelementptr inbounds [20000 x i32], [20000 x i32]* %3, i64 0, i64 %105
  %107 = bitcast i32* %106 to <4 x i32>*
  %108 = load <4 x i32>, <4 x i32>* %107, align 4, !tbaa !5
  %109 = getelementptr inbounds i32, i32* %106, i64 4
  %110 = bitcast i32* %109 to <4 x i32>*
  %111 = load <4 x i32>, <4 x i32>* %110, align 4, !tbaa !5
  %112 = getelementptr inbounds [20000 x i32], [20000 x i32]* %3, i64 0, i64 %104
  %113 = bitcast i32* %112 to <4 x i32>*
  store <4 x i32> %108, <4 x i32>* %113, align 4, !tbaa !5
  %114 = getelementptr inbounds i32, i32* %112, i64 4
  %115 = bitcast i32* %114 to <4 x i32>*
  store <4 x i32> %111, <4 x i32>* %115, align 4, !tbaa !5
  br label %116

116:                                              ; preds = %100, %103
  %117 = icmp eq i64 %57, %60
  br i1 %117, label %127, label %118

118:                                              ; preds = %54, %116
  %119 = phi i64 [ %46, %54 ], [ %61, %116 ]
  br label %120

120:                                              ; preds = %118, %120
  %121 = phi i64 [ %122, %120 ], [ %119, %118 ]
  %122 = add nsw i64 %121, 1
  %123 = getelementptr inbounds [20000 x i32], [20000 x i32]* %3, i64 0, i64 %122
  %124 = load i32, i32* %123, align 4, !tbaa !5
  %125 = getelementptr inbounds [20000 x i32], [20000 x i32]* %3, i64 0, i64 %121
  store i32 %124, i32* %125, align 4, !tbaa !5
  %126 = icmp eq i64 %122, %55
  br i1 %126, label %127, label %120, !llvm.loop !14

127:                                              ; preds = %120, %116, %50
  %128 = add nsw i32 %43, 1
  %129 = add nsw i32 %44, -1
  br label %130

130:                                              ; preds = %42, %127
  %131 = phi i32 [ %129, %127 ], [ %44, %42 ]
  %132 = phi i32 [ %128, %127 ], [ %43, %42 ]
  %133 = add nsw i32 %131, 1
  %134 = sub nsw i32 %18, %132
  %135 = icmp slt i32 %133, %134
  br i1 %135, label %42, label %21, !llvm.loop !16

136:                                              ; preds = %24, %136
  %137 = phi i64 [ %142, %136 ], [ 0, %24 ]
  %138 = getelementptr inbounds [20000 x i32], [20000 x i32]* %3, i64 0, i64 %137
  %139 = load i32, i32* %138, align 4, !tbaa !5
  %140 = call nonnull align 8 dereferenceable(8) %"class.std::basic_ostream"* @_ZNSolsEi(%"class.std::basic_ostream"* nonnull align 8 dereferenceable(8) @_ZSt4cout, i32 %139)
  call void @llvm.lifetime.start.p0i8(i64 1, i8* nonnull %1)
  store i8 32, i8* %1, align 1, !tbaa !17
  %141 = call nonnull align 8 dereferenceable(8) %"class.std::basic_ostream"* @_ZSt16__ostream_insertIcSt11char_traitsIcEERSt13basic_ostreamIT_T0_ES6_PKS3_l(%"class.std::basic_ostream"* nonnull align 8 dereferenceable(8) %140, i8* nonnull %1, i64 1)
  call void @llvm.lifetime.end.p0i8(i64 1, i8* nonnull %1)
  %142 = add nuw nsw i64 %137, 1
  %143 = load i32, i32* %2, align 4, !tbaa !5
  %144 = add i32 %143, %27
  %145 = sext i32 %144 to i64
  %146 = icmp slt i64 %142, %145
  br i1 %146, label %136, label %147, !llvm.loop !18

147:                                              ; preds = %136, %30
  %148 = phi i64 [ %31, %30 ], [ %145, %136 ]
  %149 = getelementptr inbounds [20000 x i32], [20000 x i32]* %3, i64 0, i64 %148
  %150 = load i32, i32* %149, align 4, !tbaa !5
  %151 = call nonnull align 8 dereferenceable(8) %"class.std::basic_ostream"* @_ZNSolsEi(%"class.std::basic_ostream"* nonnull align 8 dereferenceable(8) @_ZSt4cout, i32 %150)
  call void @llvm.lifetime.end.p0i8(i64 80000, i8* nonnull %6) #6
  call void @llvm.lifetime.end.p0i8(i64 4, i8* nonnull %4) #6
  ret i32 0
}

; Function Attrs: argmemonly mustprogress nofree nosync nounwind willreturn
declare void @llvm.lifetime.start.p0i8(i64 immarg, i8* nocapture) #4

declare nonnull align 8 dereferenceable(16) %"class.std::basic_istream"* @_ZNSirsERi(%"class.std::basic_istream"* nonnull align 8 dereferenceable(16), i32* nonnull align 4 dereferenceable(4)) local_unnamed_addr #0

declare nonnull align 8 dereferenceable(8) %"class.std::basic_ostream"* @_ZNSolsEi(%"class.std::basic_ostream"* nonnull align 8 dereferenceable(8), i32) local_unnamed_addr #0

; Function Attrs: argmemonly mustprogress nofree nosync nounwind willreturn
declare void @llvm.lifetime.end.p0i8(i64 immarg, i8* nocapture) #4

declare nonnull align 8 dereferenceable(8) %"class.std::basic_ostream"* @_ZSt16__ostream_insertIcSt11char_traitsIcEERSt13basic_ostreamIT_T0_ES6_PKS3_l(%"class.std::basic_ostream"* nonnull align 8 dereferenceable(8), i8*, i64) local_unnamed_addr #0

; Function Attrs: sspstrong uwtable
define internal void @_GLOBAL__sub_I_304.cpp() #5 section ".text.startup" {
  tail call void @_ZNSt8ios_base4InitC1Ev(%"class.std::ios_base::Init"* nonnull align 1 dereferenceable(1) @_ZStL8__ioinit)
  %1 = tail call i32 @__cxa_atexit(void (i8*)* bitcast (void (%"class.std::ios_base::Init"*)* @_ZNSt8ios_base4InitD1Ev to void (i8*)*), i8* getelementptr inbounds (%"class.std::ios_base::Init", %"class.std::ios_base::Init"* @_ZStL8__ioinit, i64 0, i32 0), i8* nonnull @__dso_handle) #6
  ret void
}


!llvm.module.flags = !{!0, !1, !2, !3}
!llvm.ident = !{!4}

!0 = !{i32 1, !"wchar_size", i32 4}
!1 = !{i32 7, !"PIC Level", i32 2}
!2 = !{i32 7, !"PIE Level", i32 2}
!3 = !{i32 7, !"uwtable", i32 1}
!4 = !{!"clang version 13.0.0"}
!5 = !{!6, !6, i64 0}
!6 = !{!"int", !7, i64 0}
!7 = !{!"omnipotent char", !8, i64 0}
!8 = !{!"Simple C++ TBAA"}
!9 = distinct !{!9, !10}
!10 = !{!"llvm.loop.mustprogress"}
!11 = distinct !{!11, !10}
!12 = distinct !{!12, !10, !13}
!13 = !{!"llvm.loop.isvectorized", i32 1}
!14 = distinct !{!14, !10, !15, !13}
!15 = !{!"llvm.loop.unroll.runtime.disable"}
!16 = distinct !{!16, !10}
!17 = !{!7, !7, i64 0}
!18 = distinct !{!18, !10}
